; Function Attrs: nounwind uwtable
define range(i32 -46, 1) i32 @pmix_progress_thread_stop(ptr noundef readonly captures(address_is_null) %0) local_unnamed_addr #0 {
  %.b21 = load i1, ptr @inited, align 1
  br i1 %.b21, label %2, label %.loopexit

2:                                                ; preds = %1
  %3 = icmp eq ptr %0, null
  br i1 %3, label %7, label %4

4:                                                ; preds = %2
  %5 = tail call i32 @strcmp(ptr noundef nonnull dereferenceable(1) %0, ptr noundef nonnull dereferenceable(32) @.str.2) #15
  %6 = icmp eq i32 %5, 0
  br i1 %6, label %7, label %10

7:                                                ; preds = %4, %2
  %8 = load i8, ptr getelementptr inbounds nuw (i8, ptr @pmix_globals, i64 2889), align 1, !tbaa !47, !range !61, !noundef !62
  %9 = trunc nuw i8 %8 to i1
  br i1 %9, label %.loopexit, label %10

10:                                               ; preds = %7, %4
  %.019 = phi ptr [ %0, %4 ], [ @.str.2, %7 ]
  %.01825 = load ptr, ptr getelementptr inbounds nuw (i8, ptr @tracking, i64 240), align 8, !tbaa !35
  %.not26 = icmp eq ptr %.01825, getelementptr inbounds nuw (i8, ptr @tracking, i64 120)
  br i1 %.not26, label %.loopexit, label %.lr.ph

.lr.ph:                                           ; preds = %10, %62
  %.01827 = phi ptr [ %.018, %62 ], [ %.01825, %10 ]
  %11 = getelementptr inbounds nuw i8, ptr %.01827, i64 152
  %12 = load ptr, ptr %11, align 8, !tbaa !36
  %13 = tail call i32 @strcmp(ptr noundef nonnull dereferenceable(1) %.019, ptr noundef nonnull dereferenceable(1) %12) #15
  %14 = icmp eq i32 %13, 0
  br i1 %14, label %15, label %62

15:                                               ; preds = %.lr.ph
  %16 = getelementptr inbounds nuw i8, ptr %.01827, i64 144
  %17 = load i32, ptr %16, align 8, !tbaa !37
  %18 = add nsw i32 %17, -1
  store i32 %18, ptr %16, align 8, !tbaa !37
  %19 = icmp sgt i32 %17, 1
  br i1 %19, label %.loopexit, label %20

20:                                               ; preds = %15
  %21 = getelementptr inbounds nuw i8, ptr %.01827, i64 168
  %22 = load volatile i8, ptr %21, align 8, !tbaa !63, !range !61, !noundef !62
  %23 = trunc nuw i8 %22 to i1
  br i1 %23, label %24, label %30

24:                                               ; preds = %20
  store volatile i8 0, ptr %21, align 8, !tbaa !63
  %25 = getelementptr inbounds nuw i8, ptr %.01827, i64 160
  %26 = load ptr, ptr %25, align 8, !tbaa !7
  %27 = tail call i32 @event_base_loopexit(ptr noundef %26, ptr noundef null) #14
  %28 = getelementptr inbounds nuw i8, ptr %.01827, i64 312
  %29 = tail call i32 @pmix_thread_join(ptr noundef nonnull %28, ptr noundef null) #14
  br label %30

30:                                               ; preds = %24, %20
  %31 = getelementptr inbounds nuw i8, ptr %.01827, i64 120
  %32 = load ptr, ptr %31, align 8, !tbaa !35
  %33 = getelementptr inbounds nuw i8, ptr %.01827, i64 128
  %34 = load ptr, ptr %33, align 8, !tbaa !44
  %35 = getelementptr inbounds nuw i8, ptr %34, i64 120
  store volatile ptr %32, ptr %35, align 8, !tbaa !35
  %36 = getelementptr inbounds nuw i8, ptr %32, i64 128
  store volatile ptr %34, ptr %36, align 8, !tbaa !44
  %37 = load volatile i64, ptr getelementptr inbounds nuw (i8, ptr @tracking, i64 264), align 8, !tbaa !45
  %38 = add i64 %37, -1
  store volatile i64 %38, ptr getelementptr inbounds nuw (i8, ptr @tracking, i64 264), align 8, !tbaa !45
  %39 = tail call i32 @pthread_mutex_lock(ptr noundef %.01827) #14
  %40 = icmp eq i32 %39, 35
  br i1 %40, label %41, label %pmix_obj_update.exit

41:                                               ; preds = %30
  %42 = tail call ptr @__errno_location() #17
  store i32 35, ptr %42, align 4, !tbaa !27
  tail call void @perror(ptr noundef nonnull @.str.4) #18
  tail call void @abort() #19
  unreachable

pmix_obj_update.exit:                             ; preds = %30
  %43 = getelementptr inbounds nuw i8, ptr %.01827, i64 48
  %44 = load i32, ptr %43, align 8, !tbaa !31
  %45 = add nsw i32 %44, -1
  store i32 %45, ptr %43, align 8, !tbaa !31
  %46 = tail call i32 @pthread_mutex_unlock(ptr noundef %.01827) #14
  %47 = icmp eq i32 %45, 0
  br i1 %47, label %48, label %.loopexit

48:                                               ; preds = %pmix_obj_update.exit
  %49 = getelementptr inbounds nuw i8, ptr %.01827, i64 40
  %50 = load ptr, ptr %49, align 8, !tbaa !30
  %51 = getelementptr inbounds nuw i8, ptr %50, i64 48
  %52 = load ptr, ptr %51, align 8, !tbaa !40
  %53 = load ptr, ptr %52, align 8, !tbaa !3
  %.not6.i = icmp eq ptr %53, null
  br i1 %.not6.i, label %pmix_obj_run_destructors.exit, label %.lr.ph.i

.lr.ph.i:                                         ; preds = %48, %.lr.ph.i
  %54 = phi ptr [ %56, %.lr.ph.i ], [ %53, %48 ]
  %.07.i = phi ptr [ %55, %.lr.ph.i ], [ %52, %48 ]
  tail call void %54(ptr noundef %.01827) #14
  %55 = getelementptr inbounds nuw i8, ptr %.07.i, i64 8
  %56 = load ptr, ptr %55, align 8, !tbaa !3
  %.not.i = icmp eq ptr %56, null
  br i1 %.not.i, label %pmix_obj_run_destructors.exit, label %.lr.ph.i, !llvm.loop !41

pmix_obj_run_destructors.exit:                    ; preds = %.lr.ph.i, %48
  %57 = getelementptr inbounds nuw i8, ptr %.01827, i64 96
  %58 = load ptr, ptr %57, align 8, !tbaa !42
  %.not22 = icmp eq ptr %58, null
  br i1 %.not22, label %61, label %59

59:                                               ; preds = %pmix_obj_run_destructors.exit
  %60 = getelementptr inbounds nuw i8, ptr %.01827, i64 56
  tail call void %58(ptr noundef nonnull %60, ptr noundef nonnull %.01827) #14
  br label %.loopexit

61:                                               ; preds = %pmix_obj_run_destructors.exit
  tail call void @free(ptr noundef nonnull %.01827) #14
  br label %.loopexit

62:                                               ; preds = %.lr.ph
  %63 = getelementptr inbounds nuw i8, ptr %.01827, i64 120
  %.018 = load ptr, ptr %63, align 8, !tbaa !35
  %.not = icmp eq ptr %.018, getelementptr inbounds nuw (i8, ptr @tracking, i64 120)
  br i1 %.not, label %.loopexit, label %.lr.ph, !llvm.loop !73

.loopexit:                                        ; preds = %62, %10, %pmix_obj_update.exit, %61, %59, %15, %7, %1
  %.0 = phi i32 [ -46, %1 ], [ 0, %7 ], [ 0, %15 ], [ 0, %59 ], [ 0, %61 ], [ 0, %pmix_obj_update.exit ], [ -46, %10 ], [ -46, %62 ]
  ret i32 %.0
}